	.arch armv7-a
	.fpu softvfp
	.eabi_attribute 20, 1
	.eabi_attribute 21, 1
	.eabi_attribute 23, 3
	.eabi_attribute 24, 1
	.eabi_attribute 25, 1
	.eabi_attribute 26, 2
	.eabi_attribute 30, 2
	.eabi_attribute 34, 1
	.eabi_attribute 18, 4
	.file	"hacc_hk.c"
	.text
.Ltext0:
	.align	2
	.global	HACC_V3_Init
	.type	HACC_V3_Init, %function
HACC_V3_Init:
.LFB182:
	.file 1 "ALPS_SW/MP/KK1.MP7/alps/kernel-3.4/mediatek/platform/mt6571/kernel/drivers/masp/mach/hacc_hk.c"
	.loc 1 63 0
	@ args = 0, pretend = 0, frame = 0
	@ frame_needed = 1, uses_anonymous_args = 0
.LVL0:
	mov	ip, sp
.LCFI0:
	stmfd	sp!, {r4, r5, r6, r7, fp, ip, lr, pc}
.LCFI1:
	sub	fp, ip, #4
.LCFI2:
	.loc 1 63 0
	mov	r5, r1
	mov	r4, r0
	.loc 1 73 0
	bl	masp_hal_secure_algo_init
.LVL1:
	.loc 1 105 0
	mov	r3, #40960
	movt	r3, 61440
	mov	r2, #0
	.loc 1 111 0
	mov	r7, #2
	.loc 1 91 0
	cmp	r4, r2
	.loc 1 105 0
	str	r2, [r3, #32]
	.loc 1 126 0
	mov	r4, r2
	.loc 1 105 0
	str	r2, [r3, #36]
	.loc 1 91 0
	moveq	r0, r7
	.loc 1 105 0
	str	r2, [r3, #40]
	.loc 1 91 0
	movne	r0, #3
.LVL2:
	.loc 1 105 0
	str	r2, [r3, #44]
.LVL3:
	.loc 1 136 0
	mov	ip, r3
	.loc 1 105 0
	str	r2, [r3, #48]
.LVL4:
	.loc 1 139 0
	mov	r6, #1
	.loc 1 105 0
	str	r2, [r3, #52]
.LVL5:
	str	r2, [r3, #56]
.LVL6:
	str	r2, [r3, #60]
.LVL7:
	.loc 1 115 0
	mov	r2, #16
	.loc 1 111 0
	str	r7, [r3, #4]
	.loc 1 115 0
	str	r2, [r3, #12]
	.loc 1 117 0
	ldr	r2, [r3, #12]
	ldr	r1, .L12
	orr	r2, r2, #256
	str	r2, [r3, #12]
	.loc 1 120 0
	str	r7, [r3, #8]
.LVL8:
	.loc 1 126 0
	ldr	r2, [r5, #0]
	str	r2, [r3, #64]
.LVL9:
	ldr	r2, [r5, #4]
	str	r2, [r3, #68]
.LVL10:
	ldr	r2, [r5, #8]
	str	r2, [r3, #72]
.LVL11:
	ldr	r2, [r5, #12]
	str	r2, [r3, #76]
.LVL12:
.L4:
	.loc 1 136 0
	ldr	r2, [r1, r4, asl #4]
	.loc 1 133 0
	add	r3, r1, r4, asl #4
.LVL13:
	.loc 1 136 0
	str	r2, [ip, #16]
.LVL14:
	ldr	r2, [r3, #4]
	str	r2, [ip, #20]
.LVL15:
	ldr	r2, [r3, #8]
	str	r2, [ip, #24]
.LVL16:
	ldr	r3, [r3, #12]
.LVL17:
	str	r3, [ip, #28]
.LVL18:
	.loc 1 139 0
	str	r6, [ip, #8]
.L3:
	.loc 1 141 0 discriminator 1
	ldr	r2, [ip, #8]
	mov	r3, #40960
	movt	r3, 61440
	tst	r2, #32768
	beq	.L3
	.loc 1 130 0
	add	r4, r4, #1
.LVL19:
	cmp	r4, #3
	bne	.L4
	.loc 1 150 0
	mov	r2, #2
	str	r2, [r3, #8]
.LVL20:
	.loc 1 156 0
	ldr	r2, [r5, #0]
	str	r2, [r3, #64]
.LVL21:
	ldr	r2, [r5, #4]
	str	r2, [r3, #68]
.LVL22:
	ldr	r2, [r5, #8]
	str	r2, [r3, #72]
.LVL23:
	ldr	r2, [r5, #12]
	str	r2, [r3, #76]
.LVL24:
	.loc 1 161 0
	mov	r2, #0
	.loc 1 160 0
	str	r0, [r3, #4]
	.loc 1 161 0
	str	r2, [r3, #12]
	ldmfd	sp, {r4, r5, r6, r7, fp, sp, pc}
.L13:
	.align	2
.L12:
	.word	.LANCHOR0
.LFE182:
	.size	HACC_V3_Init, .-HACC_V3_Init
	.align	2
	.global	HACC_V3_Run
	.type	HACC_V3_Run, %function
HACC_V3_Run:
.LFB183:
	.loc 1 165 0
	@ args = 0, pretend = 0, frame = 0
	@ frame_needed = 1, uses_anonymous_args = 0
.LVL25:
	mov	ip, sp
.LCFI3:
	stmfd	sp!, {r4, r5, r6, r7, fp, ip, lr, pc}
.LCFI4:
	sub	fp, ip, #4
.LCFI5:
.LVL26:
	.loc 1 172 0
	cmp	r1, #0
	ldmeqfd	sp, {r4, r5, r6, r7, fp, sp, pc}
	.loc 1 177 0 discriminator 1
	mov	r4, #40960
	movt	r4, 61440
	.loc 1 172 0 discriminator 1
	mov	r5, r0
	.loc 1 180 0 discriminator 1
	mov	r6, #1
.LVL27:
.L18:
	.loc 1 177 0 discriminator 1
	ldr	r3, [r5, #0]
	str	r3, [r4, #16]
.LVL28:
	ldr	r3, [r5, #4]
	str	r3, [r4, #20]
.LVL29:
	ldr	r3, [r5, #8]
	str	r3, [r4, #24]
.LVL30:
	ldr	r3, [r5, #12]
	str	r3, [r4, #28]
.LVL31:
	.loc 1 180 0 discriminator 1
	str	r6, [r4, #8]
.L17:
	.loc 1 182 0 discriminator 1
	ldr	ip, [r4, #8]
	mov	r3, #40960
	movt	r3, 61440
	tst	ip, #32768
	beq	.L17
.LVL32:
	.loc 1 186 0 discriminator 1
	ldr	ip, [r3, #80]
	.loc 1 172 0 discriminator 1
	add	r5, r5, #16
.LVL33:
	rsb	r7, r0, r5
	cmp	r7, r1
	.loc 1 186 0 discriminator 1
	str	ip, [r2, #0]
.LVL34:
	ldr	ip, [r3, #84]
	str	ip, [r2, #4]
.LVL35:
	ldr	ip, [r3, #88]
	str	ip, [r2, #8]
.LVL36:
	ldr	r3, [r3, #92]
	str	r3, [r2, #12]
.LVL37:
	.loc 1 172 0 discriminator 1
	add	r2, r2, #16
.LVL38:
	bcc	.L18
	ldmfd	sp, {r4, r5, r6, r7, fp, sp, pc}
.LFE183:
	.size	HACC_V3_Run, .-HACC_V3_Run
	.align	2
	.global	HACC_V3_Terminate
	.type	HACC_V3_Terminate, %function
HACC_V3_Terminate:
.LFB184:
	.loc 1 192 0
	@ args = 0, pretend = 0, frame = 0
	@ frame_needed = 1, uses_anonymous_args = 0
	mov	ip, sp
.LCFI6:
	stmfd	sp!, {fp, ip, lr, pc}
.LCFI7:
	sub	fp, ip, #4
.LCFI8:
	.loc 1 196 0
	mov	r3, #40960
	movt	r3, 61440
	.loc 1 204 0
	mov	r2, #0
	.loc 1 196 0
	mov	r1, #2
	str	r1, [r3, #8]
.LVL39:
	.loc 1 204 0
	str	r2, [r3, #32]
.LVL40:
	str	r2, [r3, #36]
.LVL41:
	str	r2, [r3, #40]
.LVL42:
	str	r2, [r3, #44]
.LVL43:
	str	r2, [r3, #48]
.LVL44:
	str	r2, [r3, #52]
.LVL45:
	str	r2, [r3, #56]
.LVL46:
	str	r2, [r3, #60]
.LVL47:
	.loc 1 207 0
	bl	masp_hal_secure_algo_deinit
.LVL48:
	ldmfd	sp, {fp, sp, pc}
.LFE184:
	.size	HACC_V3_Terminate, .-HACC_V3_Terminate
	.section	.rodata
	.align	2
.LANCHOR0 = . + 0
	.type	g_CFG_RANDOM_PATTERN, %object
	.size	g_CFG_RANDOM_PATTERN, 48
g_CFG_RANDOM_PATTERN:
	.word	759479152
	.word	-1488661977
	.word	-794196405
	.word	-2080390588
	.word	2127046251
	.word	1139281842
	.word	27669642
	.word	543685024
	.word	1414751237
	.word	-716790095
	.word	482602042
	.word	-566789501
	.section	.debug_frame,"",%progbits
.Lframe0:
	.4byte	.LECIE0-.LSCIE0
.LSCIE0:
	.4byte	0xffffffff
	.byte	0x1
	.ascii	"\000"
	.uleb128 0x1
	.sleb128 -4
	.byte	0xe
	.byte	0xc
	.uleb128 0xd
	.uleb128 0
	.align	2
.LECIE0:
.LSFDE0:
	.4byte	.LEFDE0-.LASFDE0
.LASFDE0:
	.4byte	.Lframe0
	.4byte	.LFB182
	.4byte	.LFE182-.LFB182
	.byte	0x4
	.4byte	.LCFI0-.LFB182
	.byte	0xd
	.uleb128 0xc
	.byte	0x4
	.4byte	.LCFI1-.LCFI0
	.byte	0x84
	.uleb128 0x8
	.byte	0x85
	.uleb128 0x7
	.byte	0x86
	.uleb128 0x6
	.byte	0x87
	.uleb128 0x5
	.byte	0x8b
	.uleb128 0x4
	.byte	0x8d
	.uleb128 0x3
	.byte	0x8e
	.uleb128 0x2
	.byte	0x4
	.4byte	.LCFI2-.LCFI1
	.byte	0xc
	.uleb128 0xb
	.uleb128 0x4
	.align	2
.LEFDE0:
.LSFDE2:
	.4byte	.LEFDE2-.LASFDE2
.LASFDE2:
	.4byte	.Lframe0
	.4byte	.LFB183
	.4byte	.LFE183-.LFB183
	.byte	0x4
	.4byte	.LCFI3-.LFB183
	.byte	0xd
	.uleb128 0xc
	.byte	0x4
	.4byte	.LCFI4-.LCFI3
	.byte	0x84
	.uleb128 0x8
	.byte	0x85
	.uleb128 0x7
	.byte	0x86
	.uleb128 0x6
	.byte	0x87
	.uleb128 0x5
	.byte	0x8b
	.uleb128 0x4
	.byte	0x8d
	.uleb128 0x3
	.byte	0x8e
	.uleb128 0x2
	.byte	0x4
	.4byte	.LCFI5-.LCFI4
	.byte	0xc
	.uleb128 0xb
	.uleb128 0x4
	.align	2
.LEFDE2:
.LSFDE4:
	.4byte	.LEFDE4-.LASFDE4
.LASFDE4:
	.4byte	.Lframe0
	.4byte	.LFB184
	.4byte	.LFE184-.LFB184
	.byte	0x4
	.4byte	.LCFI6-.LFB184
	.byte	0xd
	.uleb128 0xc
	.byte	0x4
	.4byte	.LCFI7-.LCFI6
	.byte	0x8b
	.uleb128 0x4
	.byte	0x8d
	.uleb128 0x3
	.byte	0x8e
	.uleb128 0x2
	.byte	0x4
	.4byte	.LCFI8-.LCFI7
	.byte	0xc
	.uleb128 0xb
	.uleb128 0x4
	.align	2
.LEFDE4:
	.text
.Letext0:
	.file 2 "ALPS_SW/MP/KK1.MP7/alps/kernel-3.4/arch/arm/include/asm/hwcap.h"
	.file 3 "ALPS_SW/MP/KK1.MP7/alps/kernel-3.4/include/linux/printk.h"
	.file 4 "ALPS_SW/MP/KK1.MP7/alps/kernel-3.4/include/linux/kernel.h"
	.file 5 "ALPS_SW/MP/KK1.MP7/alps/kernel-3.4/../mediatek/kernel/include/mach/mt_sec_hal.h"
	.file 6 "ALPS_SW/MP/KK1.MP7/alps/kernel-3.4/mediatek/platform/mt6571/kernel/drivers/masp/asf/asf_inc/sec_typedef.h"
	.section	.note.GNU-stack,"",%progbits
