	.arch armv7-a
	.fpu softvfp
	.eabi_attribute 20, 1
	.eabi_attribute 21, 1
	.eabi_attribute 23, 3
	.eabi_attribute 24, 1
	.eabi_attribute 25, 1
	.eabi_attribute 26, 2
	.eabi_attribute 30, 2
	.eabi_attribute 34, 1
	.eabi_attribute 18, 4
	.file	"hacc_lib.c"
	.text
.Ltext0:
	.align	2
	.global	masp_hal_secure_algo_init
	.type	masp_hal_secure_algo_init, %function
masp_hal_secure_algo_init:
.LFB182:
	.file 1 "ALPS_SW/MP/KK1.MP7/alps/kernel-3.4/mediatek/platform/mt6571/kernel/drivers/masp/mach/hacc_lib.c"
	.loc 1 60 0
	@ args = 0, pretend = 0, frame = 0
	@ frame_needed = 1, uses_anonymous_args = 0
	mov	ip, sp
.LCFI0:
	stmfd	sp!, {fp, ip, lr, pc}
.LCFI1:
	sub	fp, ip, #4
.LCFI2:
.LVL0:
	.loc 1 64 0
	mov	r0, #1
	ldmfd	sp, {fp, sp, pc}
.LFE182:
	.size	masp_hal_secure_algo_init, .-masp_hal_secure_algo_init
	.align	2
	.global	masp_hal_secure_algo_deinit
	.type	masp_hal_secure_algo_deinit, %function
masp_hal_secure_algo_deinit:
.LFB183:
	.loc 1 70 0
	@ args = 0, pretend = 0, frame = 0
	@ frame_needed = 1, uses_anonymous_args = 0
	mov	ip, sp
.LCFI3:
	stmfd	sp!, {fp, ip, lr, pc}
.LCFI4:
	sub	fp, ip, #4
.LCFI5:
.LVL1:
	.loc 1 74 0
	mov	r0, #1
	ldmfd	sp, {fp, sp, pc}
.LFE183:
	.size	masp_hal_secure_algo_deinit, .-masp_hal_secure_algo_deinit
	.align	2
	.global	masp_hal_secure_algo
	.type	masp_hal_secure_algo, %function
masp_hal_secure_algo:
.LFB184:
	.loc 1 87 0
	@ args = 4, pretend = 0, frame = 0
	@ frame_needed = 1, uses_anonymous_args = 0
.LVL2:
	mov	ip, sp
.LCFI6:
	stmfd	sp!, {r4, r5, r6, r7, r8, fp, ip, lr, pc}
.LCFI7:
	sub	fp, ip, #4
.LCFI8:
	sub	sp, sp, #12
	ldr	r5, [fp, #4]
.LVL3:
	mov	r6, r0
	mov	r8, r1
	mov	r4, r2
	mov	r7, r3
.LVL4:
.L4:
	.loc 1 96 0 discriminator 1
	bl	osal_hacc_lock
.LVL5:
	.loc 1 97 0 discriminator 1
	cmp	r0, #0
	bne	.L4
.LVL6:
	.loc 1 101 0
	mov	r0, r7
.LVL7:
	mov	r1, #16
	bl	masp_hal_sp_hacc_init
.LVL8:
	.loc 1 103 0
	subs	r7, r0, #0
.LVL9:
	bne	.L5
.LVL10:
	.loc 1 113 0
	cmp	r6, #0
	bne	.L18
	.loc 1 126 0
	str	r6, [sp, #0]
	mov	r0, r8
.LVL11:
	mov	r1, r4
	mov	r2, #1
	mov	r3, #2
	bl	masp_hal_sp_hacc_dec
.LVL12:
.L8:
	.loc 1 136 0
	cmp	r4, #0
	movne	r3, #0
	beq	.L10
.LVL13:
.L9:
	.loc 1 138 0 discriminator 2
	ldrb	ip, [r0, r3]	@ zero_extendqisi2
	strb	ip, [r5, r3]
	.loc 1 136 0 discriminator 2
	add	r3, r3, #1
.LVL14:
	cmp	r3, r4
	bne	.L9
.LVL15:
.L10:
	.loc 1 142 0
	bl	osal_hacc_unlock
.LVL16:
	.loc 1 153 0
	sub	sp, fp, #32
	ldmfd	sp, {r4, r5, r6, r7, r8, fp, sp, pc}
.LVL17:
.L18:
	.loc 1 113 0
	cmp	r6, #1
	.loc 1 130 0
	movne	r7, #24576
	.loc 1 113 0
	beq	.L19
.LVL18:
.L5:
	.loc 1 148 0
	bl	osal_hacc_unlock
.LVL19:
	.loc 1 150 0
	ldr	r1, .L20
	mov	r2, r7
	ldr	r0, .L20+4
	bl	printk
.LVL20:
	.loc 1 151 0
#APP
@ 151 "ALPS_SW/MP/KK1.MP7/alps/kernel-3.4/mediatek/platform/mt6571/kernel/drivers/masp/mach/hacc_lib.c" 1
	.word 0xe7f001f2
@ 0 "" 2
.LVL21:
.L19:
	.loc 1 119 0
	str	r7, [sp, #0]
	mov	r0, r8
.LVL22:
	mov	r1, r4
	mov	r2, r6
	mov	r3, #2
	bl	masp_hal_sp_hacc_enc
.LVL23:
	.loc 1 120 0
	b	.L8
.L21:
	.align	2
.L20:
	.word	.LC1
	.word	.LC0
.LFE184:
	.size	masp_hal_secure_algo, .-masp_hal_secure_algo
	.section	.rodata.str1.4,"aMS",%progbits,1
	.align	2
.LC0:
	.ascii	"[%s] masp_hal_secure_algo error (0x%x)\012\000"
.LC1:
	.ascii	"CE\000"
	.section	.debug_frame,"",%progbits
.Lframe0:
	.4byte	.LECIE0-.LSCIE0
.LSCIE0:
	.4byte	0xffffffff
	.byte	0x1
	.ascii	"\000"
	.uleb128 0x1
	.sleb128 -4
	.byte	0xe
	.byte	0xc
	.uleb128 0xd
	.uleb128 0
	.align	2
.LECIE0:
.LSFDE0:
	.4byte	.LEFDE0-.LASFDE0
.LASFDE0:
	.4byte	.Lframe0
	.4byte	.LFB182
	.4byte	.LFE182-.LFB182
	.byte	0x4
	.4byte	.LCFI0-.LFB182
	.byte	0xd
	.uleb128 0xc
	.byte	0x4
	.4byte	.LCFI1-.LCFI0
	.byte	0x8b
	.uleb128 0x4
	.byte	0x8d
	.uleb128 0x3
	.byte	0x8e
	.uleb128 0x2
	.byte	0x4
	.4byte	.LCFI2-.LCFI1
	.byte	0xc
	.uleb128 0xb
	.uleb128 0x4
	.align	2
.LEFDE0:
.LSFDE2:
	.4byte	.LEFDE2-.LASFDE2
.LASFDE2:
	.4byte	.Lframe0
	.4byte	.LFB183
	.4byte	.LFE183-.LFB183
	.byte	0x4
	.4byte	.LCFI3-.LFB183
	.byte	0xd
	.uleb128 0xc
	.byte	0x4
	.4byte	.LCFI4-.LCFI3
	.byte	0x8b
	.uleb128 0x4
	.byte	0x8d
	.uleb128 0x3
	.byte	0x8e
	.uleb128 0x2
	.byte	0x4
	.4byte	.LCFI5-.LCFI4
	.byte	0xc
	.uleb128 0xb
	.uleb128 0x4
	.align	2
.LEFDE2:
.LSFDE4:
	.4byte	.LEFDE4-.LASFDE4
.LASFDE4:
	.4byte	.Lframe0
	.4byte	.LFB184
	.4byte	.LFE184-.LFB184
	.byte	0x4
	.4byte	.LCFI6-.LFB184
	.byte	0xd
	.uleb128 0xc
	.byte	0x4
	.4byte	.LCFI7-.LCFI6
	.byte	0x84
	.uleb128 0x9
	.byte	0x85
	.uleb128 0x8
	.byte	0x86
	.uleb128 0x7
	.byte	0x87
	.uleb128 0x6
	.byte	0x88
	.uleb128 0x5
	.byte	0x8b
	.uleb128 0x4
	.byte	0x8d
	.uleb128 0x3
	.byte	0x8e
	.uleb128 0x2
	.byte	0x4
	.4byte	.LCFI8-.LCFI7
	.byte	0xc
	.uleb128 0xb
	.uleb128 0x4
	.align	2
.LEFDE4:
	.text
.Letext0:
	.file 2 "ALPS_SW/MP/KK1.MP7/alps/kernel-3.4/../mediatek/kernel/include/mach/mt_sec_hal.h"
	.file 3 "ALPS_SW/MP/KK1.MP7/alps/kernel-3.4/mediatek/platform/mt6571/kernel/drivers/masp/asf/asf_inc/sec_typedef.h"
	.file 4 "ALPS_SW/MP/KK1.MP7/alps/kernel-3.4/arch/arm/include/asm/hwcap.h"
	.file 5 "ALPS_SW/MP/KK1.MP7/alps/kernel-3.4/include/linux/printk.h"
	.file 6 "ALPS_SW/MP/KK1.MP7/alps/kernel-3.4/include/linux/kernel.h"
	.file 7 "ALPS_SW/MP/KK1.MP7/alps/kernel-3.4/../mediatek/kernel/include/mach/sec_osal.h"
	.section	.note.GNU-stack,"",%progbits
